; Function Attrs: mustprogress nofree norecurse nosync nounwind willreturn memory(argmem: readwrite) uwtable
define void @_ZN22EditManipulatorsPlugin13keyPressEventEP9QKeyEventR9MeshModelP6GLArea(ptr nocapture noundef nonnull writeonly align 8 dereferenceable(304) %0, ptr nocapture noundef readonly %1, ptr nocapture noundef nonnull readnone align 8 dereferenceable(1288) %2, ptr nocapture noundef readnone %3) unnamed_addr #11 align 2 {
  %5 = getelementptr inbounds i8, ptr %1, i64 40
  %6 = load i32, ptr %5, align 8
  %7 = icmp eq i32 %6, 16777248
  br i1 %7, label %8, label %10

8:                                                ; preds = %4
  %9 = getelementptr inbounds i8, ptr %0, i64 185
  store i8 1, ptr %9, align 1
  br label %10

10:                                               ; preds = %8, %4
  ret void
}